	.file	"main.c"
	.section	.rodata
.LC0:
	.string	"enter the string1"
.LC1:
	.string	"%s"
.LC2:
	.string	"enter the string2"
.LC3:
	.string	"given number is equal"
.LC4:
	.string	"given number is not equal"
	.text
	.globl	main
	.type	main, @function
main:
.LFB0:
	.cfi_startproc
	pushq	%rbp
	.cfi_def_cfa_offset 16
	.cfi_offset 6, -16
	movq	%rsp, %rbp
	.cfi_def_cfa_register 6
	subq	$32, %rsp
	movl	$.LC0, %edi
	movl	$0, %eax
	call	printf
	leaq	-16(%rbp), %rax
	movq	%rax, %rsi
	movl	$.LC1, %edi
	movl	$0, %eax
	call	__isoc99_scanf
	movl	$.LC2, %edi
	movl	$0, %eax
	call	printf
	leaq	-32(%rbp), %rax
	movq	%rax, %rsi
	movl	$.LC1, %edi
	movl	$0, %eax
	call	__isoc99_scanf
	leaq	-32(%rbp), %rdx
	leaq	-16(%rbp), %rax
	movq	%rdx, %rsi
	movq	%rax, %rdi
	call	compare
	movl	%eax, -4(%rbp)
	cmpl	$0, -4(%rbp)
	jne	.L2
	movl	$.LC3, %edi
	movl	$0, %eax
	call	printf
	jmp	.L4
.L2:
	movl	$.LC4, %edi
	movl	$0, %eax
	call	printf
.L4:
	leave
	.cfi_def_cfa 7, 8
	ret
	.cfi_endproc
.LFE0:
	.size	main, .-main
	.globl	compare
	.type	compare, @function
compare:
.LFB1:
	.cfi_startproc
	pushq	%rbp
	.cfi_def_cfa_offset 16
	.cfi_offset 6, -16
	movq	%rsp, %rbp
	.cfi_def_cfa_register 6
	movq	%rdi, -24(%rbp)
	movq	%rsi, -32(%rbp)
	movl	$0, -4(%rbp)
	movl	$0, -8(%rbp)
	jmp	.L6
.L9:
	movl	-4(%rbp), %eax
	movslq	%eax, %rdx
	movq	-24(%rbp), %rax
	addq	%rdx, %rax
	movzbl	(%rax), %edx
	movl	-4(%rbp), %eax
	movslq	%eax, %rcx
	movq	-32(%rbp), %rax
	addq	%rcx, %rax
	movzbl	(%rax), %eax
	cmpb	%al, %dl
	je	.L7
	movl	$1, -8(%rbp)
	jmp	.L8
.L7:
	addl	$1, -4(%rbp)
.L6:
	movl	-4(%rbp), %eax
	movslq	%eax, %rdx
	movq	-24(%rbp), %rax
	addq	%rdx, %rax
	movzbl	(%rax), %eax
	testb	%al, %al
	je	.L8
	movl	-4(%rbp), %eax
	movslq	%eax, %rdx
	movq	-32(%rbp), %rax
	addq	%rdx, %rax
	movzbl	(%rax), %eax
	testb	%al, %al
	jne	.L9
.L8:
	cmpl	$0, -8(%rbp)
	jne	.L10
	movl	-4(%rbp), %eax
	movslq	%eax, %rdx
	movq	-24(%rbp), %rax
	addq	%rdx, %rax
	movzbl	(%rax), %eax
	testb	%al, %al
	jne	.L10
	movl	-4(%rbp), %eax
	movslq	%eax, %rdx
	movq	-24(%rbp), %rax
	addq	%rdx, %rax
	movzbl	(%rax), %eax
	testb	%al, %al
	jne	.L10
	movl	$1, %eax
	jmp	.L11
.L10:
	movl	$0, %eax
.L11:
	popq	%rbp
	.cfi_def_cfa 7, 8
	ret
	.cfi_endproc
.LFE1:
	.size	compare, .-compare
	.ident	"GCC: (GNU) 4.8.5 20150623 (Red Hat 4.8.5-44)"
	.section	.note.GNU-stack,"",@progbits
